; Function Attrs: mustprogress nofree norecurse nosync nounwind willreturn memory(read, inaccessiblemem: none) uwtable
define hidden noundef zeroext i1 @_ZNK3nla7emonics10is_visitedERKNS_5monicE(ptr nocapture noundef nonnull readonly align 8 dereferenceable(216) %this, ptr nocapture noundef nonnull readonly align 8 dereferenceable(34) %m) local_unnamed_addr #7 align 2 {
entry:
  %m_visited = getelementptr inbounds i8, ptr %this, i64 144
  %0 = load i32, ptr %m_visited, align 8
  %m_monics = getelementptr inbounds i8, ptr %this, i64 128
  %m_var2index = getelementptr inbounds i8, ptr %this, i64 136
  %1 = load i32, ptr %m, align 8
  %2 = load ptr, ptr %m_var2index, align 8
  %idxprom.i = zext i32 %1 to i64
  %arrayidx.i = getelementptr inbounds i32, ptr %2, i64 %idxprom.i
  %3 = load i32, ptr %arrayidx.i, align 4
  %4 = load ptr, ptr %m_monics, align 8
  %idxprom.i1 = zext i32 %3 to i64
  %m_visited.i = getelementptr inbounds %"class.nla::monic", ptr %4, i64 %idxprom.i1, i32 4
  %5 = load i32, ptr %m_visited.i, align 4
  %cmp = icmp eq i32 %0, %5
  ret i1 %cmp
}